(lp0
I1
ac__builtin__
set
p1
((lp2
(I1
I4
I7
tp3
a(I0
I5
I10
tp4
a(I0
I8
I2
tp5
a(I1
I10
I2
tp6
a(I6
I8
I11
tp7
a(I6
I6
I11
tp8
a(I0
I6
I10
tp9
a(I0
I1
I4
tp10
a(I1
I2
I11
tp11
a(I4
I6
I11
tp12
a(I0
I1
I5
tp13
a(I3
I5
I8
tp14
a(I3
I3
I3
tp15
a(I0
I4
I9
tp16
a(I2
I6
I7
tp17
a(I0
I10
I11
tp18
a(I4
I5
I6
tp19
a(I5
I6
I8
tp20
a(I1
I9
I3
tp21
a(I1
I4
I11
tp22
a(I3
I7
I9
tp23
a(I6
I9
I8
tp24
a(I1
I3
I10
tp25
a(I1
I5
I9
tp26
a(I0
I11
I11
tp27
a(I3
I4
I8
tp28
a(I1
I6
I6
tp29
a(I2
I11
I5
tp30
a(I2
I10
I5
tp31
a(I2
I10
I3
tp32
a(I1
I10
I11
tp33
a(I3
I8
I6
tp34
a(I0
I3
I6
tp35
a(I1
I5
I5
tp36
a(I4
I9
I10
tp37
a(I3
I3
I10
tp38
a(I0
I8
I8
tp39
a(I1
I8
I7
tp40
a(I6
I6
I7
tp41
a(I1
I1
I3
tp42
a(I2
I4
I8
tp43
a(I0
I8
I7
tp44
a(I1
I4
I8
tp45
a(I4
I6
I5
tp46
a(I2
I10
I8
tp47
a(I0
I10
I3
tp48
a(I1
I3
I4
tp49
a(I3
I5
I5
tp50
a(I1
I1
I4
tp51
a(I6
I11
I11
tp52
atp53
Rp54
ag1
((lp55
g3
ag4
ag5
ag6
ag7
ag8
ag9
ag10
ag11
ag12
ag13
ag14
ag15
ag16
ag17
ag18
ag19
ag20
ag21
ag22
ag23
ag24
ag25
ag26
ag27
ag28
ag29
ag30
ag31
ag32
ag33
ag34
ag35
ag36
ag37
ag38
ag39
ag40
ag41
ag42
ag43
ag44
ag45
ag46
ag47
ag48
ag49
ag50
ag51
ag52
atp56
Rp57
ag1
((lp58
g3
ag4
ag5
ag6
ag7
ag8
ag9
ag10
ag11
ag12
ag13
ag14
ag15
ag16
ag17
ag18
ag19
ag20
ag21
ag22
ag23
ag24
ag25
ag26
ag27
ag28
ag29
ag30
ag31
ag32
ag33
ag34
ag35
ag36
ag37
ag38
ag39
ag40
ag41
ag42
ag43
ag44
ag45
ag46
ag47
ag48
ag49
ag50
ag51
ag52
atp59
Rp60
a(dp61
g3
(I0
I0
I0
I0
tp62
sg4
g62
sg5
g62
sg6
g62
sg7
g62
sg8
g62
sg9
g62
sg10
g62
sg11
g62
sg12
g62
sg13
g62
sg14
g62
sg15
g62
sg16
g62
sg17
g62
sg18
g62
sg19
g62
sg20
g62
sg21
g62
sg22
g62
sg23
g62
sg24
g62
sg25
g62
sg26
g62
sg27
g62
sg28
g62
sg29
g62
sg30
g62
sg31
g62
sg32
g62
sg33
g62
sg34
(I17
I0
I0
I1
tp63
sg35
g62
sg36
g62
sg37
g62
sg38
g62
sg39
g62
sg40
g62
sg41
g62
sg42
g62
sg43
g62
sg44
g62
sg45
g62
sg46
g62
sg47
g62
sg48
g62
sg49
g62
sg50
g62
sg51
g62
sg52
g62
sa.