(lp0
I2
ac__builtin__
set
p1
((lp2
(I8
I10
I11
tp3
a(I2
I5
I10
tp4
a(I1
I8
I8
tp5
a(I1
I4
I8
tp6
a(I5
I7
I9
tp7
a(I3
I10
I7
tp8
a(I3
I11
I4
tp9
a(I0
I6
I10
tp10
a(I3
I5
I7
tp11
a(I2
I11
I8
tp12
a(I3
I11
I8
tp13
a(I1
I4
I3
tp14
a(I1
I11
I8
tp15
a(I5
I9
I8
tp16
a(I1
I3
I11
tp17
a(I0
I7
I6
tp18
a(I2
I10
I7
tp19
a(I3
I3
I4
tp20
a(I1
I5
I8
tp21
a(I3
I10
I9
tp22
a(I2
I10
I5
tp23
a(I5
I11
I11
tp24
a(I3
I3
I11
tp25
a(I2
I9
I8
tp26
a(I7
I11
I9
tp27
a(I1
I8
I4
tp28
a(I4
I8
I6
tp29
a(I4
I10
I9
tp30
a(I2
I6
I11
tp31
a(I3
I5
I5
tp32
atp33
Rp34
ag1
((lp35
g3
ag4
a(I2
I3
I10
tp36
ag7
ag8
a(I3
I5
I10
tp37
ag10
a(I5
I10
I9
tp38
ag13
a(I0
I6
I5
tp39
ag14
ag16
ag18
a(I3
I9
I8
tp40
ag19
a(I5
I10
I7
tp41
ag21
ag22
ag24
ag26
ag27
a(I3
I7
I9
tp42
a(I2
I5
I5
tp43
ag28
ag29
ag30
ag31
a(I0
I9
I8
tp44
ag32
a(I2
I6
I10
tp45
atp46
Rp47
ag1
((lp48
g3
ag4
a(I4
I10
I10
tp49
a(I1
I4
I8
tp50
a(I3
I5
I11
tp51
ag7
ag8
ag10
a(I3
I5
I9
tp52
ag13
ag14
a(I7
I7
I11
tp53
ag16
ag18
ag19
ag21
a(I3
I8
I4
tp54
ag22
a(I1
I10
I11
tp55
a(I5
I5
I8
tp56
ag24
a(I5
I5
I11
tp57
ag26
ag27
ag28
ag29
ag30
ag31
ag32
a(I0
I6
I9
tp58
atp59
Rp60
a(dp61
g3
(I1
I0
I1
I2
tp62
sg4
(I1
I0
I1
I2
tp63
sg49
(I0
I0
I0
I0
tp64
sg5
g64
sg6
g64
sg51
(F0.0
F0.0
F2.0
I1
tp65
sg7
(F0.0
F1.0
F0.0
I2
tp66
sg8
(I1
I0
I1
I2
tp67
sg9
(F0.0
F2.0
F0.0
I1
tp68
sg25
(F3.0
F0.0
F0.0
I1
tp69
sg10
(I0
I1
I1
I2
tp70
sg11
g64
sg12
g64
sg52
g64
sg13
(I3
I0
I0
I2
tp71
sg39
g64
sg14
(F0.0
F0.0
F2.0
I2
tp72
sg53
g64
sg15
g64
sg16
(I0
I1
I0
I2
tp73
sg17
g64
sg18
(F0.0
F0.5
F0.5
I2
tp74
sg40
(F0.0
F1.0
F0.0
I1
tp75
sg19
(I2
I0
I1
I2
tp76
sg20
(F0.0
F0.0
F2.0
I1
tp77
sg21
(F0.0
F0.0
F3.5
I2
tp78
sg54
(F2.0
F0.0
F0.0
I1
tp79
sg22
(F1.0
F0.5
F0.0
I2
tp80
sg23
g64
sg55
g64
sg56
(F0.0
F0.0
F1.5
I2
tp81
sg24
(I2
I0
I0
I2
tp82
sg57
(F0.0
F0.0
F1.0
I1
tp83
sg26
(F0.0
F2.5
F0.0
I2
tp84
sg42
g64
sg27
(F1.0
F0.0
F0.5
I2
tp85
sg37
g64
sg43
(F0.0
F0.0
F0.0
I1
tp86
sg36
(F1.0
F0.5
F0.0
I2
tp87
sg29
(F1.5
F1.0
F0.0
I2
tp88
sg30
(I0
I0
I1
I2
tp89
sg28
(F2.0
F0.0
F0.0
I2
tp90
sg31
(F0.0
F1.5
F0.0
I2
tp91
sg44
g64
sg41
(F2.0
F0.0
F0.0
I1
tp92
sg32
(F2.0
F0.0
F0.0
I2
tp93
sg45
g64
sg58
g64
sg38
g64
sa.