(lp0
I3
ac__builtin__
set
p1
((lp2
(I8
I10
I11
tp3
a(I2
I5
I10
tp4
a(I0
I8
I3
tp5
a(I1
I8
I8
tp6
a(I3
I5
I11
tp7
a(I5
I7
I9
tp8
a(I3
I10
I7
tp9
a(I3
I11
I4
tp10
a(I0
I6
I10
tp11
a(I2
I11
I8
tp12
a(I4
I8
I10
tp13
a(I3
I11
I8
tp14
a(I4
I11
I8
tp15
a(I3
I11
I11
tp16
a(I1
I11
I8
tp17
a(I3
I3
I5
tp18
a(I2
I10
I7
tp19
a(I3
I10
I9
tp20
a(I3
I3
I9
tp21
a(I2
I10
I5
tp22
a(I5
I11
I11
tp23
a(I3
I8
I6
tp24
a(I3
I3
I11
tp25
a(I7
I11
I9
tp26
a(I5
I11
I8
tp27
a(I1
I8
I4
tp28
a(I4
I8
I6
tp29
a(I3
I5
I7
tp30
a(I7
I11
I11
tp31
a(I3
I5
I5
tp32
atp33
Rp34
ag1
((lp35
g3
ag4
a(I0
I6
I8
tp36
a(I3
I6
I10
tp37
a(I2
I3
I10
tp38
ag8
ag9
a(I3
I5
I10
tp39
ag11
a(I5
I10
I9
tp40
a(I2
I9
I5
tp41
ag14
a(I0
I6
I5
tp42
a(I0
I10
I9
tp43
a(I1
I6
I10
tp44
a(I1
I4
I3
tp45
a(I5
I9
I8
tp46
a(I0
I7
I6
tp47
a(I3
I9
I8
tp48
ag20
a(I4
I9
I8
tp49
a(I2
I9
I10
tp50
a(I0
I4
I3
tp51
a(I2
I3
I8
tp52
a(I2
I9
I8
tp53
a(I3
I7
I9
tp54
ag28
ag29
a(I2
I6
I11
tp55
a(I2
I8
I6
tp56
atp57
Rp58
ag1
((lp59
g3
ag4
a(I4
I10
I10
tp60
a(I3
I5
I11
tp61
ag8
ag9
ag11
a(I4
I10
I9
tp62
a(I3
I7
I4
tp63
a(I3
I5
I9
tp64
ag14
a(I1
I11
I9
tp65
ag45
a(I7
I7
I11
tp66
a(I3
I10
I11
tp67
ag47
ag19
a(I1
I5
I8
tp68
a(I1
I5
I11
tp69
a(I8
I8
I10
tp70
a(I5
I5
I8
tp71
a(I5
I5
I11
tp72
a(I1
I10
I11
tp73
a(I1
I10
I8
tp74
ag26
ag28
a(I3
I5
I7
tp75
a(I1
I7
I9
tp76
a(I8
I10
I9
tp77
a(I4
I10
I11
tp78
atp79
Rp80
a(dp81
g3
(F0.6666666666666666
F0.0
F1.6666666666666667
I3
tp82
sg4
(I1
I0
I1
I2
tp83
sg60
(F0.0
F0.0
F0.5
I2
tp84
sg36
(I0
I0
I0
I0
tp85
sg5
g85
sg6
(F0.0
F2.0
F1.5
I2
tp86
s(I1
I4
I8
tp87
(F0.0
F3.0
F0.0
I2
tp88
sg61
(F1.0
F0.0
F1.6666666666666667
I3
tp89
sg41
(F0.0
F0.0
F0.0
I1
tp90
sg8
(F0.0
F0.6666666666666666
F0.0
I3
tp91
sg9
(I1
I0
I1
I2
tp92
sg10
(F1.0
F0.6666666666666666
F0.3333333333333333
I3
tp93
sg39
(F1.5
F0.5
F0.0
I2
tp94
sg11
(F0.0
F1.6666666666666667
F0.6666666666666666
I3
tp95
sg63
g85
sg30
(F1.0
F0.0
F1.3333333333333333
I3
tp96
sg12
(F1.0
F0.0
F0.0
I2
tp97
sg13
(F0.0
F3.0
F0.0
I1
tp98
sg64
(F0.0
F0.5
F0.5
I2
tp99
sg14
(I3
I0
I0
I2
tp100
sg42
(F0.0
F1.5
F0.0
I2
tp101
sg15
(F0.0
F1.0
F0.0
I1
tp102
sg45
(F0.0
F0.0
F1.3333333333333333
I3
tp103
sg66
(F1.5
F0.0
F0.0
I2
tp104
sg17
(F0.5
F0.0
F0.5
I2
tp105
sg37
g85
sg65
g85
sg43
g85
sg44
(F0.0
F0.0
F2.0
I1
tp106
sg18
g85
sg46
(F0.0
F1.3333333333333333
F0.0
I3
tp107
s(I1
I3
I11
tp108
(F0.0
F0.0
F2.0
I2
tp109
sg67
(F0.0
F0.0
F2.0
I1
tp110
sg47
(F0.0
F1.3333333333333333
F0.3333333333333333
I3
tp111
sg48
(F1.6666666666666667
F0.3333333333333333
F0.0
I3
tp112
sg19
(I2
I0
I1
I2
tp113
s(I3
I3
I4
tp114
(F0.0
F1.5
F1.0
I2
tp115
sg16
g85
sg68
(F0.0
F0.0
F2.3333333333333335
I3
tp116
s(I3
I8
I4
tp117
(F3.0
F0.0
F0.0
I2
tp118
sg20
(F1.0
F0.5
F0.0
I2
tp119
sg22
(F0.6666666666666666
F0.0
F1.6666666666666667
I3
tp120
sg21
g85
sg69
(F0.0
F0.0
F3.0
I1
tp121
sg49
g85
sg70
g85
sg71
(F0.0
F0.0
F1.5
I2
tp122
sg23
(F2.0
F0.0
F0.0
I3
tp123
sg24
g85
sg50
g85
sg25
(F2.0
F0.0
F1.3333333333333333
I3
tp124
sg51
(F0.0
F1.0
F0.5
I2
tp125
sg73
(F0.0
F1.0
F0.6666666666666666
I3
tp126
sg74
g85
sg52
(F2.0
F0.0
F0.0
I2
tp127
sg72
(F1.0
F0.0
F1.3333333333333333
I3
tp128
sg53
(F0.0
F2.5
F0.0
I2
tp129
sg54
(F1.0
F1.5
F0.0
I2
tp130
sg26
(F1.6666666666666667
F0.0
F0.3333333333333333
I3
tp131
sg27
(F0.0
F3.0
F0.0
I1
tp132
sg32
(F1.3333333333333333
F0.0
F0.6666666666666666
I3
tp133
s(I2
I5
I5
tp134
(F0.0
F0.0
F0.0
I2
tp135
sg38
(F1.0
F0.5
F0.0
I2
tp136
sg29
(F1.5
F1.0
F0.0
I2
tp137
sg62
(F0.0
F0.0
F1.0
I3
tp138
sg76
g85
sg28
(F2.0
F0.0
F0.0
I2
tp139
sg77
(F0.0
F2.0
F0.0
I1
tp140
sg31
g85
sg55
(F0.0
F1.6666666666666667
F0.0
I3
tp141
sg56
g85
s(I0
I9
I8
tp142
(F0.0
F0.0
F2.5
I2
tp143
s(I5
I10
I7
tp144
(F2.5
F0.0
F0.0
I2
tp145
sg78
g85
s(I2
I6
I10
tp146
(F0.5
F0.0
F0.0
I2
tp147
s(I0
I6
I9
tp148
(F0.0
F4.0
F0.0
I2
tp149
sg40
(F0.6666666666666666
F0.3333333333333333
F0.6666666666666666
I3
tp150
sa.