(lp0
I4
ac__builtin__
set
p1
((lp2
(I8
I10
I11
tp3
a(I2
I5
I10
tp4
a(I0
I8
I3
tp5
a(I3
I5
I11
tp6
a(I3
I10
I7
tp7
a(I3
I11
I4
tp8
a(I2
I11
I8
tp9
a(I3
I11
I8
tp10
a(I3
I10
I5
tp11
a(I3
I11
I11
tp12
a(I1
I11
I8
tp13
a(I2
I11
I11
tp14
a(I1
I3
I11
tp15
a(I2
I10
I7
tp16
a(I3
I8
I4
tp17
a(I3
I10
I9
tp18
a(I1
I8
I3
tp19
a(I2
I10
I5
tp20
a(I5
I11
I11
tp21
a(I2
I10
I4
tp22
a(I3
I3
I11
tp23
a(I2
I5
I7
tp24
a(I1
I8
I7
tp25
a(I7
I11
I9
tp26
a(I5
I11
I8
tp27
a(I1
I8
I4
tp28
a(I4
I8
I6
tp29
a(I3
I5
I7
tp30
a(I3
I5
I5
tp31
a(I0
I8
I4
tp32
atp33
Rp34
ag1
((lp35
(I0
I6
I8
tp36
a(I0
I9
I10
tp37
a(I5
I7
I9
tp38
a(I4
I7
I6
tp39
a(I3
I5
I10
tp40
a(I0
I6
I10
tp41
a(I5
I10
I9
tp42
a(I2
I9
I5
tp43
a(I0
I6
I5
tp44
a(I0
I10
I9
tp45
a(I1
I6
I8
tp46
a(I1
I6
I10
tp47
a(I0
I6
I6
tp48
a(I2
I6
I5
tp49
a(I5
I9
I8
tp50
a(I0
I7
I6
tp51
a(I3
I9
I8
tp52
ag18
a(I1
I6
I6
tp53
a(I4
I9
I8
tp54
a(I0
I7
I5
tp55
a(I2
I9
I10
tp56
a(I0
I4
I3
tp57
a(I2
I9
I8
tp58
a(I3
I7
I9
tp59
ag29
a(I4
I10
I9
tp60
a(I0
I7
I10
tp61
a(I2
I6
I11
tp62
a(I0
I9
I8
tp63
atp64
Rp65
ag1
((lp66
g3
ag4
a(I3
I5
I4
tp67
a(I0
I6
I8
tp68
a(I3
I5
I11
tp69
ag7
ag41
a(I4
I10
I9
tp70
a(I3
I5
I9
tp71
a(I3
I7
I4
tp72
a(I1
I11
I9
tp73
a(I1
I4
I3
tp74
a(I7
I7
I11
tp75
a(I3
I10
I11
tp76
a(I1
I10
I8
tp77
ag16
a(I1
I5
I8
tp78
a(I1
I5
I11
tp79
a(I8
I8
I10
tp80
a(I5
I5
I8
tp81
a(I5
I5
I11
tp82
a(I1
I10
I11
tp83
a(I1
I7
I11
tp84
a(I2
I5
I4
tp85
a(I2
I5
I5
tp86
a(I3
I5
I7
tp87
a(I1
I7
I9
tp88
a(I8
I10
I9
tp89
a(I3
I7
I11
tp90
a(I4
I10
I11
tp91
atp92
Rp93
a(dp94
g69
(F1.0
F0.0
F1.6666666666666667
I3
tp95
sg39
(I0
I0
I0
I0
tp96
s(I4
I10
I10
tp97
(F1.0
F0.0
F0.3333333333333333
I3
tp98
s(I3
I5
I9
tp99
(F0.0
F1.3333333333333333
F0.3333333333333333
I3
tp100
sg72
(F1.0
F0.0
F1.3333333333333333
I3
tp101
sg61
g96
sg13
(F1.6666666666666667
F0.0
F0.3333333333333333
I3
tp102
sg49
g96
sg76
(F0.0
F0.0
F2.6666666666666665
I3
tp103
sg51
(F0.0
F1.3333333333333333
F0.3333333333333333
I3
tp104
s(I3
I8
I4
tp105
(F3.0
F0.0
F0.0
I2
tp106
sg18
(F0.6666666666666666
F0.3333333333333333
F0.0
I3
tp107
sg79
(F0.0
F0.3333333333333333
F1.0
I3
tp108
sg54
(F0.0
F2.3333333333333335
F0.0
I3
tp109
sg83
(F0.0
F1.0
F0.6666666666666666
I3
tp110
sg21
(F2.0
F0.0
F0.0
I3
tp111
s(I3
I8
I6
tp112
(F0.3333333333333333
F0.0
F0.6666666666666666
I3
tp113
sg82
(F1.0
F0.0
F1.3333333333333333
I3
tp114
sg24
g96
s(I2
I3
I8
tp115
(F1.3333333333333333
F0.0
F0.0
I3
tp116
sg26
(F1.6666666666666667
F0.0
F0.3333333333333333
I3
tp117
s(I2
I5
I5
tp118
(F0.0
F0.0
F1.0
I3
tp119
sg28
(F2.3333333333333335
F0.0
F0.0
I3
tp120
s(I7
I11
I11
tp121
(F0.6666666666666666
F0.0
F0.0
I3
tp122
sg62
(F0.0
F1.6666666666666667
F0.0
I3
tp123
s(I0
I6
I9
tp124
(F0.0
F4.0
F0.0
I2
tp125
sg32
g96
s(I1
I8
I8
tp126
(F0.0
F1.3333333333333333
F2.3333333333333335
I3
tp127
s(I2
I3
I10
tp128
(F0.6666666666666666
F0.3333333333333333
F0.6666666666666666
I3
tp129
sg38
(F0.0
F0.6666666666666666
F0.0
I3
tp130
sg7
(F1.6666666666666667
F0.0
F0.6666666666666666
I3
tp131
sg10
(F2.0
F0.0
F0.3333333333333333
I3
tp132
sg44
(F0.0
F2.0
F0.0
I3
tp133
sg11
(F0.0
F0.0
F0.0
I1
tp134
sg46
g96
sg75
(F1.0
F0.0
F0.6666666666666666
I3
tp135
sg14
g96
sg47
(F0.0
F1.0
F2.0
I3
tp136
s(I3
I3
I5
tp137
(F0.0
F0.0
F2.0
I3
tp138
sg50
(F0.0
F1.3333333333333333
F0.0
I3
tp139
s(I1
I3
I11
tp140
(F0.0
F0.0
F2.0
I2
tp141
sg53
g96
s(I3
I3
I9
tp142
(F0.0
F1.6666666666666667
F0.6666666666666666
I3
tp143
sg22
(F0.0
F2.0
F0.0
I1
tp144
sg56
(F0.3333333333333333
F2.3333333333333335
F0.0
I3
tp145
sg23
(F2.0
F0.0
F1.3333333333333333
I3
tp146
sg84
(F0.0
F0.0
F0.0
I1
tp147
sg58
(F0.0
F2.6666666666666665
F0.0
I3
tp148
sg8
(F1.0
F0.6666666666666666
F0.3333333333333333
I3
tp149
sg88
(F1.0
F0.0
F1.3333333333333333
I3
tp150
sg4
(F0.6666666666666666
F0.0
F1.3333333333333333
I3
tp151
sg67
g96
s(I3
I6
I10
tp152
(F1.0
F0.0
F0.6666666666666666
I3
tp153
sg40
(F1.0
F0.3333333333333333
F0.6666666666666666
I3
tp154
sg42
(F0.6666666666666666
F0.3333333333333333
F0.6666666666666666
I3
tp155
sg45
(F0.0
F1.6666666666666667
F0.0
I3
tp156
sg73
(F1.0
F0.0
F1.6666666666666667
I3
tp157
sg74
(F0.0
F0.0
F1.3333333333333333
I3
tp158
s(I1
I10
I8
tp159
(F2.3333333333333335
F0.0
F0.0
I3
tp160
s(I5
I10
I7
tp161
(F2.5
F0.0
F0.0
I2
tp162
sg78
(F0.0
F0.0
F2.3333333333333335
I3
tp163
sg19
g96
sg55
(F0.0
F1.0
F0.0
I1
tp164
sg81
(F0.0
F0.0
F2.0
I3
tp165
sg57
(F0.0
F0.6666666666666666
F1.3333333333333333
I3
tp166
sg85
(F1.0
F0.0
F2.0
I2
tp167
sg25
(F0.0
F0.0
F2.0
I1
tp168
sg59
(F0.6666666666666666
F1.0
F0.0
I3
tp169
s(I5
I11
I8
tp170
(F0.0
F1.0
F0.0
I3
tp171
s(I8
I10
I9
tp172
(F1.3333333333333333
F1.3333333333333333
F0.0
I3
tp173
sg90
(F0.0
F0.0
F2.0
I1
tp174
s(I0
I9
I8
tp175
(F0.0
F0.6666666666666666
F1.6666666666666667
I3
tp176
s(I2
I6
I10
tp177
(F0.5
F0.0
F0.0
I2
tp178
sg3
(F0.6666666666666666
F0.0
F1.6666666666666667
I3
tp179
sg36
(F0.0
F2.0
F0.6666666666666666
I3
tp180
sg5
(F2.0
F0.0
F0.6666666666666666
I3
tp181
sg37
(F0.0
F4.0
F0.0
I1
tp182
sg80
(F2.3333333333333335
F0.0
F1.0
I3
tp183
sg41
(F0.0
F1.6666666666666667
F0.6666666666666666
I3
tp184
sg70
(F0.0
F0.0
F1.0
I3
tp185
sg9
(F0.6666666666666666
F0.0
F0.3333333333333333
I3
tp186
sg43
(F0.0
F1.0
F0.0
I3
tp187
s(I4
I8
I10
tp188
(F0.0
F1.0
F0.6666666666666666
I3
tp189
s(I4
I11
I8
tp190
(F0.0
F1.3333333333333333
F1.0
I3
tp191
sg12
(F1.0
F0.0
F0.0
I3
tp192
sg48
(F0.0
F2.5
F0.0
I2
tp193
s(I3
I3
I4
tp194
(F0.0
F1.5
F1.0
I2
tp195
sg52
(F1.6666666666666667
F0.3333333333333333
F0.0
I3
tp196
sg16
(F2.0
F0.0
F0.6666666666666666
I3
tp197
sg20
(F0.6666666666666666
F0.0
F1.6666666666666667
I3
tp198
s(I4
I10
I11
tp199
(F2.0
F0.0
F0.0
I3
tp200
s(I1
I4
I8
tp201
(F0.0
F3.0
F0.0
I2
tp202
sg29
(F1.0
F0.6666666666666666
F0.6666666666666666
I3
tp203
sg30
(F1.0
F0.0
F1.3333333333333333
I3
tp204
s(I2
I8
I6
tp205
(F0.6666666666666666
F0.0
F0.6666666666666666
I3
tp206
sg31
(F1.3333333333333333
F0.0
F0.6666666666666666
I3
tp207
sa.