(lp0
I5
ac__builtin__
set
p1
((lp2
(I8
I10
I11
tp3
a(I3
I5
I4
tp4
a(I0
I8
I3
tp5
a(I3
I5
I11
tp6
a(I3
I10
I7
tp7
a(I1
I11
I11
tp8
a(I3
I11
I4
tp9
a(I3
I10
I4
tp10
a(I3
I11
I8
tp11
a(I4
I11
I8
tp12
a(I3
I11
I11
tp13
a(I1
I11
I8
tp14
a(I2
I11
I11
tp15
a(I2
I10
I7
tp16
a(I5
I10
I7
tp17
a(I3
I8
I4
tp18
a(I0
I11
I8
tp19
a(I1
I8
I3
tp20
a(I3
I3
I8
tp21
a(I5
I11
I11
tp22
a(I3
I8
I6
tp23
a(I3
I3
I11
tp24
a(I2
I5
I7
tp25
a(I1
I8
I7
tp26
a(I7
I11
I9
tp27
a(I2
I8
I4
tp28
a(I1
I8
I4
tp29
a(I4
I8
I6
tp30
a(I3
I5
I7
tp31
a(I0
I5
I11
tp32
a(I3
I5
I5
tp33
atp34
Rp35
ag1
((lp36
(I2
I9
I6
tp37
a(I0
I6
I8
tp38
a(I0
I9
I10
tp39
a(I5
I7
I9
tp40
a(I0
I6
I10
tp41
a(I2
I9
I5
tp42
a(I0
I6
I5
tp43
a(I0
I10
I9
tp44
a(I1
I6
I8
tp45
a(I0
I10
I8
tp46
a(I1
I6
I10
tp47
a(I0
I6
I6
tp48
a(I2
I6
I5
tp49
a(I5
I9
I8
tp50
a(I0
I7
I6
tp51
a(I0
I1
I8
tp52
a(I5
I9
I10
tp53
a(I1
I3
I9
tp54
a(I1
I6
I6
tp55
a(I2
I7
I9
tp56
a(I4
I9
I8
tp57
a(I0
I7
I5
tp58
a(I2
I9
I10
tp59
a(I0
I7
I10
tp60
a(I4
I9
I10
tp61
a(I0
I2
I9
tp62
a(I2
I9
I8
tp63
a(I3
I7
I9
tp64
a(I2
I6
I11
tp65
a(I0
I9
I8
tp66
a(I0
I6
I9
tp67
atp68
Rp69
ag1
((lp70
g3
a(I3
I8
I10
tp71
a(I2
I5
I10
tp72
a(I0
I6
I8
tp73
a(I2
I5
I11
tp74
a(I3
I5
I11
tp75
ag7
a(I3
I5
I10
tp76
a(I3
I10
I4
tp77
a(I4
I10
I9
tp78
a(I3
I7
I4
tp79
a(I1
I11
I9
tp80
a(I1
I4
I3
tp81
a(I2
I9
I3
tp82
a(I3
I10
I11
tp83
a(I1
I8
I2
tp84
a(I1
I5
I8
tp85
a(I1
I5
I11
tp86
a(I8
I8
I10
tp87
a(I5
I5
I8
tp88
a(I4
I5
I5
tp89
a(I5
I5
I11
tp90
a(I1
I5
I5
tp91
a(I2
I5
I7
tp92
a(I1
I7
I11
tp93
a(I2
I5
I4
tp94
a(I1
I4
I11
tp95
a(I2
I5
I5
tp96
a(I3
I5
I7
tp97
a(I1
I7
I9
tp98
atp99
Rp100
a(dp101
g71
(I0
I0
I0
I0
tp102
sg74
g102
sg75
(F1.0
F0.0
F1.6666666666666667
I3
tp103
s(I4
I7
I6
tp104
(F0.6666666666666666
F0.0
F0.3333333333333333
I3
tp105
s(I4
I10
I10
tp106
(F1.0
F0.0
F0.3333333333333333
I3
tp107
s(I3
I5
I9
tp108
(F0.0
F1.3333333333333333
F0.3333333333333333
I3
tp109
sg79
(F1.0
F0.0
F1.3333333333333333
I3
tp110
s(I0
I7
I10
tp111
(F1.0
F0.0
F1.0
I3
tp112
sg46
g102
sg14
(F1.6666666666666667
F0.0
F0.3333333333333333
I3
tp113
sg49
(F0.6666666666666666
F1.0
F0.0
I3
tp114
sg83
(F0.0
F0.0
F2.6666666666666665
I3
tp115
sg51
(F0.0
F1.3333333333333333
F0.3333333333333333
I3
tp116
sg52
g102
s(I3
I8
I4
tp117
(F2.0
F0.0
F1.0
I3
tp118
s(I3
I10
I9
tp119
(F0.6666666666666666
F0.3333333333333333
F0.0
I3
tp120
sg86
(F0.0
F0.3333333333333333
F1.0
I3
tp121
sg57
(F0.0
F2.3333333333333335
F0.0
I3
tp122
s(I1
I10
I11
tp123
(F0.0
F1.0
F0.6666666666666666
I3
tp124
sg22
(F2.0
F0.0
F0.0
I3
tp125
s(I3
I8
I6
tp126
(F0.3333333333333333
F0.0
F0.6666666666666666
I3
tp127
sg90
(F1.0
F0.0
F1.3333333333333333
I3
tp128
sg91
g102
sg61
g102
sg25
(F1.0
F0.0
F0.3333333333333333
I3
tp129
s(I2
I3
I8
tp130
(F1.3333333333333333
F0.0
F0.0
I3
tp131
sg27
(F1.6666666666666667
F0.0
F0.3333333333333333
I3
tp132
s(I2
I5
I5
tp133
(F0.0
F0.0
F1.0
I3
tp134
s(I2
I3
I10
tp135
(F0.6666666666666666
F0.3333333333333333
F0.6666666666666666
I3
tp136
s(I7
I11
I11
tp137
(F0.6666666666666666
F0.0
F0.0
I3
tp138
sg65
(F0.0
F1.6666666666666667
F0.0
I3
tp139
s(I0
I6
I9
tp140
(F0.0
F4.0
F0.0
I2
tp141
s(I0
I8
I4
tp142
(F0.0
F0.6666666666666666
F0.6666666666666666
I3
tp143
sg37
g102
s(I1
I8
I8
tp144
(F0.0
F1.3333333333333333
F2.3333333333333335
I3
tp145
sg29
(F2.3333333333333335
F0.0
F0.0
I3
tp146
sg40
(F0.0
F0.6666666666666666
F0.0
I3
tp147
sg7
(F1.6666666666666667
F0.0
F0.6666666666666666
I3
tp148
sg11
(F2.0
F0.0
F0.3333333333333333
I3
tp149
sg43
(F0.0
F2.0
F0.0
I3
tp150
s(I3
I10
I5
tp151
(F0.6666666666666666
F1.0
F0.0
I3
tp152
sg45
(F0.0
F1.3333333333333333
F0.6666666666666666
I3
tp153
s(I7
I7
I11
tp154
(F1.0
F0.0
F0.6666666666666666
I3
tp155
sg15
(F1.3333333333333333
F0.0
F1.6666666666666667
I3
tp156
sg47
(F0.0
F1.0
F2.0
I3
tp157
s(I3
I3
I5
tp158
(F0.0
F0.0
F2.0
I3
tp159
sg19
g102
sg50
(F0.0
F1.3333333333333333
F0.0
I3
tp160
s(I1
I3
I11
tp161
(F0.0
F0.0
F2.0
I3
tp162
sg53
g102
sg54
g102
sg55
(F0.0
F0.6666666666666666
F0.6666666666666666
I3
tp163
sg56
g102
s(I3
I3
I9
tp164
(F0.0
F1.6666666666666667
F0.6666666666666666
I3
tp165
s(I2
I10
I4
tp166
(F0.0
F0.6666666666666666
F1.3333333333333333
I3
tp167
sg59
(F0.3333333333333333
F2.3333333333333335
F0.0
I3
tp168
sg24
(F2.0
F0.0
F1.3333333333333333
I3
tp169
sg93
(F0.0
F0.0
F1.6666666666666667
I3
tp170
sg63
(F0.0
F2.6666666666666665
F0.0
I3
tp171
sg95
g102
sg9
(F1.0
F0.6666666666666666
F0.3333333333333333
I3
tp172
sg98
(F1.0
F0.0
F1.3333333333333333
I3
tp173
sg72
(F0.6666666666666666
F0.0
F1.3333333333333333
I3
tp174
s(I3
I5
I4
tp175
(F0.6666666666666666
F0.3333333333333333
F0.0
I3
tp176
s(I3
I6
I10
tp177
(F1.0
F0.0
F0.6666666666666666
I3
tp178
sg8
g102
s(I3
I5
I10
tp179
(F1.0
F0.3333333333333333
F0.6666666666666666
I3
tp180
s(I5
I10
I9
tp181
(F0.6666666666666666
F0.3333333333333333
F0.6666666666666666
I3
tp182
sg44
(F0.0
F1.6666666666666667
F0.0
I3
tp183
sg80
(F1.0
F0.0
F1.6666666666666667
I3
tp184
sg81
(F0.0
F0.0
F1.3333333333333333
I3
tp185
s(I1
I10
I8
tp186
(F2.3333333333333335
F0.0
F0.0
I3
tp187
s(I5
I10
I7
tp188
(F2.5
F0.0
F0.0
I2
tp189
sg85
(F0.0
F0.0
F2.3333333333333335
I3
tp190
sg20
(F1.6666666666666667
F0.3333333333333333
F0.0
I3
tp191
sg58
(F0.6666666666666666
F1.0
F0.0
I3
tp192
sg88
(F0.0
F0.0
F2.0
I3
tp193
s(I0
I4
I3
tp194
(F0.0
F0.6666666666666666
F1.3333333333333333
I3
tp195
sg94
(F0.6666666666666666
F0.0
F1.6666666666666667
I3
tp196
s(I1
I8
I7
tp197
(F0.3333333333333333
F0.0
F1.3333333333333333
I3
tp198
sg64
(F0.6666666666666666
F1.0
F0.0
I3
tp199
s(I5
I11
I8
tp200
(F0.0
F1.0
F0.0
I3
tp201
s(I8
I10
I9
tp202
(F1.3333333333333333
F1.3333333333333333
F0.0
I3
tp203
s(I3
I7
I11
tp204
(F0.6666666666666666
F1.0
F0.6666666666666666
I3
tp205
s(I0
I9
I8
tp206
(F0.0
F0.6666666666666666
F1.6666666666666667
I3
tp207
s(I2
I6
I10
tp208
(F0.5
F0.0
F0.0
I2
tp209
sg3
(F0.6666666666666666
F0.0
F1.6666666666666667
I3
tp210
sg38
(F0.0
F2.0
F0.6666666666666666
I3
tp211
sg5
(F2.0
F0.0
F0.6666666666666666
I3
tp212
sg39
(F0.0
F3.3333333333333335
F0.0
I3
tp213
sg87
(F2.3333333333333335
F0.0
F1.0
I3
tp214
sg41
(F0.0
F1.6666666666666667
F0.6666666666666666
I3
tp215
sg10
g102
sg78
(F0.0
F0.0
F1.0
I3
tp216
s(I2
I11
I8
tp217
(F0.6666666666666666
F0.0
F0.3333333333333333
I3
tp218
sg42
(F0.0
F1.0
F0.0
I3
tp219
s(I4
I8
I10
tp220
(F0.0
F1.0
F0.6666666666666666
I3
tp221
s(I4
I11
I8
tp222
(F0.0
F1.3333333333333333
F1.0
I3
tp223
sg13
(F1.0
F0.0
F0.0
I3
tp224
sg82
g102
sg48
(F0.0
F2.3333333333333335
F0.0
I3
tp225
s(I3
I3
I4
tp226
(F0.0
F1.5
F1.0
I2
tp227
s(I3
I9
I8
tp228
(F1.6666666666666667
F0.3333333333333333
F0.0
I3
tp229
s(I4
I10
I11
tp230
(F2.0
F0.0
F0.0
I3
tp231
sg16
(F2.0
F0.0
F0.6666666666666666
I3
tp232
s(I2
I10
I5
tp233
(F0.6666666666666666
F0.0
F1.6666666666666667
I3
tp234
sg21
g102
sg84
g102
sg89
g102
sg62
g102
sg28
g102
s(I1
I4
I8
tp235
(F0.0
F3.0
F0.0
I2
tp236
sg30
(F1.0
F0.6666666666666666
F0.6666666666666666
I3
tp237
sg31
(F1.0
F0.0
F1.3333333333333333
I3
tp238
sg32
g102
s(I2
I8
I6
tp239
(F0.6666666666666666
F0.0
F0.6666666666666666
I3
tp240
sg33
(F1.3333333333333333
F0.0
F0.6666666666666666
I3
tp241
sa.