(lp0
I4
ac__builtin__
set
p1
((lp2
(I8
I10
I11
tp3
a(I2
I5
I10
tp4
a(I0
I8
I3
tp5
a(I3
I5
I11
tp6
a(I3
I10
I7
tp7
a(I4
I8
I6
tp8
a(I2
I11
I8
tp9
a(I3
I11
I8
tp10
a(I3
I10
I5
tp11
a(I3
I11
I11
tp12
a(I1
I11
I8
tp13
a(I2
I11
I11
tp14
a(I1
I3
I11
tp15
a(I2
I10
I7
tp16
a(I3
I8
I4
tp17
a(I3
I10
I9
tp18
a(I1
I8
I3
tp19
a(I2
I10
I5
tp20
a(I5
I11
I11
tp21
a(I2
I10
I4
tp22
a(I3
I3
I11
tp23
a(I2
I5
I7
tp24
a(I1
I8
I7
tp25
a(I7
I11
I9
tp26
a(I5
I11
I8
tp27
a(I1
I8
I4
tp28
a(I3
I11
I4
tp29
a(I3
I5
I7
tp30
a(I3
I5
I5
tp31
a(I0
I8
I4
tp32
atp33
Rp34
ag1
((lp35
(I0
I6
I8
tp36
a(I0
I9
I10
tp37
a(I5
I7
I9
tp38
a(I4
I7
I6
tp39
a(I3
I5
I10
tp40
a(I0
I6
I10
tp41
a(I5
I10
I9
tp42
a(I2
I9
I5
tp43
a(I0
I6
I5
tp44
a(I0
I10
I9
tp45
a(I1
I6
I8
tp46
a(I1
I6
I10
tp47
a(I0
I6
I6
tp48
a(I2
I6
I5
tp49
a(I5
I9
I8
tp50
a(I0
I7
I6
tp51
a(I3
I9
I8
tp52
ag18
a(I1
I6
I6
tp53
a(I4
I9
I8
tp54
a(I0
I7
I5
tp55
a(I2
I9
I10
tp56
a(I0
I4
I3
tp57
a(I2
I9
I8
tp58
a(I3
I7
I9
tp59
ag8
a(I4
I10
I9
tp60
a(I0
I7
I10
tp61
a(I2
I6
I11
tp62
a(I0
I9
I8
tp63
atp64
Rp65
ag1
((lp66
g3
ag4
a(I3
I5
I4
tp67
a(I0
I6
I8
tp68
a(I3
I5
I11
tp69
ag7
ag41
a(I3
I5
I7
tp70
a(I3
I5
I9
tp71
a(I3
I7
I4
tp72
a(I1
I11
I9
tp73
a(I1
I4
I3
tp74
a(I7
I7
I11
tp75
a(I3
I10
I11
tp76
a(I1
I10
I8
tp77
ag16
a(I1
I5
I8
tp78
a(I1
I5
I11
tp79
a(I8
I8
I10
tp80
a(I5
I5
I8
tp81
a(I5
I5
I11
tp82
a(I1
I10
I11
tp83
a(I1
I7
I11
tp84
a(I2
I5
I4
tp85
a(I2
I5
I5
tp86
a(I4
I10
I9
tp87
a(I1
I7
I9
tp88
a(I8
I10
I9
tp89
a(I3
I7
I11
tp90
a(I4
I10
I11
tp91
atp92
Rp93
a(dp94
g69
(F1.0
F0.0
F1.6666666666666667
I3
tp95
sg39
(F0.0
F0.0
F1.0
I1
tp96
sg67
(I0
I0
I0
I0
tp97
s(I3
I5
I9
tp98
(F0.0
F1.3333333333333333
F0.3333333333333333
I3
tp99
sg72
(F1.0
F0.0
F1.3333333333333333
I3
tp100
sg61
g97
sg13
(F1.6666666666666667
F0.0
F0.3333333333333333
I3
tp101
sg49
g97
sg76
(F0.0
F0.0
F2.6666666666666665
I3
tp102
sg51
(F0.0
F1.3333333333333333
F0.3333333333333333
I3
tp103
s(I3
I8
I4
tp104
(F2.0
F0.0
F1.0
I3
tp105
sg18
(F0.6666666666666666
F0.3333333333333333
F0.0
I3
tp106
sg79
(F0.0
F0.3333333333333333
F1.0
I3
tp107
sg54
(F0.0
F2.3333333333333335
F0.0
I3
tp108
sg83
(F0.0
F1.0
F0.6666666666666666
I3
tp109
sg21
(F2.0
F0.0
F0.0
I3
tp110
s(I3
I8
I6
tp111
(F0.3333333333333333
F0.0
F0.6666666666666666
I3
tp112
sg82
(F1.0
F0.0
F1.3333333333333333
I3
tp113
sg24
(F2.0
F0.0
F0.0
I1
tp114
s(I2
I3
I8
tp115
(F1.3333333333333333
F0.0
F0.0
I3
tp116
sg26
(F1.6666666666666667
F0.0
F0.3333333333333333
I3
tp117
s(I2
I5
I5
tp118
(F0.0
F0.0
F1.0
I3
tp119
s(I2
I3
I10
tp120
(F0.6666666666666666
F0.3333333333333333
F0.6666666666666666
I3
tp121
s(I7
I11
I11
tp122
(F0.6666666666666666
F0.0
F0.0
I3
tp123
sg62
(F0.0
F1.6666666666666667
F0.0
I3
tp124
s(I0
I6
I9
tp125
(F0.0
F4.0
F0.0
I2
tp126
sg32
(F0.0
F0.5
F1.0
I2
tp127
s(I1
I8
I8
tp128
(F0.0
F1.3333333333333333
F2.3333333333333335
I3
tp129
sg28
(F2.3333333333333335
F0.0
F0.0
I3
tp130
sg38
(F0.0
F0.6666666666666666
F0.0
I3
tp131
sg7
(F1.6666666666666667
F0.0
F0.6666666666666666
I3
tp132
sg10
(F2.0
F0.0
F0.3333333333333333
I3
tp133
sg44
(F0.0
F2.0
F0.0
I3
tp134
sg11
(F0.6666666666666666
F1.0
F0.0
I3
tp135
sg46
g97
sg75
(F1.0
F0.0
F0.6666666666666666
I3
tp136
sg14
g97
sg47
(F0.0
F1.0
F2.0
I3
tp137
s(I3
I3
I5
tp138
(F0.0
F0.0
F2.0
I3
tp139
sg50
(F0.0
F1.3333333333333333
F0.0
I3
tp140
s(I1
I3
I11
tp141
(F0.0
F0.0
F2.0
I2
tp142
sg53
g97
s(I3
I3
I9
tp143
(F0.0
F1.6666666666666667
F0.6666666666666666
I3
tp144
sg22
(F0.0
F1.0
F1.0
I2
tp145
sg56
(F0.3333333333333333
F2.3333333333333335
F0.0
I3
tp146
sg23
(F2.0
F0.0
F1.3333333333333333
I3
tp147
sg84
(F0.0
F0.0
F0.0
I1
tp148
sg58
(F0.0
F2.6666666666666665
F0.0
I3
tp149
sg29
(F1.0
F0.6666666666666666
F0.3333333333333333
I3
tp150
sg88
(F1.0
F0.0
F1.3333333333333333
I3
tp151
sg4
(F0.6666666666666666
F0.0
F1.3333333333333333
I3
tp152
s(I4
I10
I10
tp153
(F1.0
F0.0
F0.3333333333333333
I3
tp154
s(I3
I6
I10
tp155
(F1.0
F0.0
F0.6666666666666666
I3
tp156
sg40
(F1.0
F0.3333333333333333
F0.6666666666666666
I3
tp157
sg42
(F0.6666666666666666
F0.3333333333333333
F0.6666666666666666
I3
tp158
sg45
(F0.0
F1.6666666666666667
F0.0
I3
tp159
sg73
(F1.0
F0.0
F1.6666666666666667
I3
tp160
sg74
(F0.0
F0.0
F1.3333333333333333
I3
tp161
s(I1
I10
I8
tp162
(F2.3333333333333335
F0.0
F0.0
I3
tp163
s(I5
I10
I7
tp164
(F2.5
F0.0
F0.0
I2
tp165
sg78
(F0.0
F0.0
F2.3333333333333335
I3
tp166
sg19
g97
sg55
(F1.0
F0.5
F0.0
I2
tp167
sg81
(F0.0
F0.0
F2.0
I3
tp168
sg57
(F0.0
F0.6666666666666666
F1.3333333333333333
I3
tp169
sg85
(F1.0
F0.0
F2.0
I2
tp170
sg25
(F0.3333333333333333
F0.0
F1.3333333333333333
I3
tp171
sg59
(F0.6666666666666666
F1.0
F0.0
I3
tp172
s(I5
I11
I8
tp173
(F0.0
F1.0
F0.0
I3
tp174
s(I8
I10
I9
tp175
(F1.3333333333333333
F1.3333333333333333
F0.0
I3
tp176
sg90
(F0.0
F0.0
F2.0
I1
tp177
s(I0
I9
I8
tp178
(F0.0
F0.6666666666666666
F1.6666666666666667
I3
tp179
s(I2
I6
I10
tp180
(F0.5
F0.0
F0.0
I2
tp181
sg3
(F0.6666666666666666
F0.0
F1.6666666666666667
I3
tp182
sg36
(F0.0
F2.0
F0.6666666666666666
I3
tp183
sg5
(F2.0
F0.0
F0.6666666666666666
I3
tp184
sg37
(F0.0
F3.3333333333333335
F0.0
I3
tp185
sg80
(F2.3333333333333335
F0.0
F1.0
I3
tp186
sg41
(F0.0
F1.6666666666666667
F0.6666666666666666
I3
tp187
sg30
(F1.0
F0.0
F1.3333333333333333
I3
tp188
sg9
(F0.6666666666666666
F0.0
F0.3333333333333333
I3
tp189
sg43
(F0.0
F1.0
F0.0
I3
tp190
s(I4
I8
I10
tp191
(F0.0
F1.0
F0.6666666666666666
I3
tp192
s(I4
I11
I8
tp193
(F0.0
F1.3333333333333333
F1.0
I3
tp194
sg12
(F1.0
F0.0
F0.0
I3
tp195
sg48
(F0.0
F2.3333333333333335
F0.0
I3
tp196
s(I3
I3
I4
tp197
(F0.0
F1.5
F1.0
I2
tp198
sg52
(F1.6666666666666667
F0.3333333333333333
F0.0
I3
tp199
sg16
(F2.0
F0.0
F0.6666666666666666
I3
tp200
sg20
(F0.6666666666666666
F0.0
F1.6666666666666667
I3
tp201
sg31
(F1.3333333333333333
F0.0
F0.6666666666666666
I3
tp202
s(I1
I4
I8
tp203
(F0.0
F3.0
F0.0
I2
tp204
sg8
(F1.0
F0.6666666666666666
F0.6666666666666666
I3
tp205
sg87
(F0.0
F0.0
F1.0
I3
tp206
s(I2
I8
I6
tp207
(F0.6666666666666666
F0.0
F0.6666666666666666
I3
tp208
s(I4
I10
I11
tp209
(F2.0
F0.0
F0.0
I3
tp210
sa.