(lp0
I3
ac__builtin__
set
p1
((lp2
(I8
I10
I11
tp3
a(I2
I5
I10
tp4
a(I0
I8
I3
tp5
a(I1
I8
I8
tp6
a(I3
I5
I11
tp7
a(I5
I7
I9
tp8
a(I3
I10
I7
tp9
a(I4
I8
I6
tp10
a(I0
I6
I10
tp11
a(I2
I11
I8
tp12
a(I4
I8
I10
tp13
a(I3
I11
I8
tp14
a(I4
I11
I8
tp15
a(I3
I11
I11
tp16
a(I1
I11
I8
tp17
a(I3
I3
I5
tp18
a(I2
I10
I7
tp19
a(I3
I10
I9
tp20
a(I3
I3
I9
tp21
a(I2
I10
I5
tp22
a(I5
I11
I11
tp23
a(I3
I8
I6
tp24
a(I3
I3
I11
tp25
a(I7
I11
I9
tp26
a(I5
I11
I8
tp27
a(I1
I8
I4
tp28
a(I3
I11
I4
tp29
a(I3
I5
I7
tp30
a(I7
I11
I11
tp31
a(I3
I5
I5
tp32
atp33
Rp34
ag1
((lp35
g3
ag4
a(I0
I6
I8
tp36
a(I3
I6
I10
tp37
ag28
ag8
ag9
a(I3
I5
I10
tp38
ag11
a(I5
I10
I9
tp39
a(I2
I9
I5
tp40
ag14
a(I0
I10
I9
tp41
a(I1
I4
I3
tp42
a(I1
I6
I10
tp43
a(I5
I9
I8
tp44
a(I0
I7
I6
tp45
a(I3
I9
I8
tp46
ag20
a(I4
I9
I8
tp47
a(I0
I6
I5
tp48
a(I2
I9
I10
tp49
a(I0
I4
I3
tp50
a(I2
I3
I8
tp51
a(I2
I9
I8
tp52
a(I3
I7
I9
tp53
a(I2
I3
I10
tp54
ag10
a(I2
I6
I11
tp55
a(I2
I8
I6
tp56
atp57
Rp58
ag1
((lp59
g3
ag4
a(I4
I10
I10
tp60
a(I3
I5
I11
tp61
ag8
ag9
ag11
a(I3
I5
I7
tp62
a(I3
I7
I4
tp63
a(I3
I5
I9
tp64
ag14
a(I1
I11
I9
tp65
ag42
a(I7
I7
I11
tp66
a(I3
I10
I11
tp67
ag45
ag19
a(I1
I5
I8
tp68
a(I1
I5
I11
tp69
a(I8
I8
I10
tp70
a(I5
I5
I8
tp71
a(I5
I5
I11
tp72
a(I1
I10
I11
tp73
a(I1
I10
I8
tp74
ag26
ag28
a(I4
I10
I9
tp75
a(I1
I7
I9
tp76
a(I8
I10
I9
tp77
a(I4
I10
I11
tp78
atp79
Rp80
a(dp81
g3
(F0.6666666666666666
F0.0
F1.6666666666666667
I3
tp82
sg4
(F0.6666666666666666
F0.0
F1.3333333333333333
I3
tp83
sg60
(F1.0
F0.0
F0.3333333333333333
I3
tp84
sg36
(F0.0
F2.0
F0.6666666666666666
I3
tp85
sg5
(F1.5
F0.0
F1.0
I2
tp86
sg6
(F0.0
F1.3333333333333333
F2.3333333333333335
I3
tp87
sg54
(F0.6666666666666666
F0.3333333333333333
F0.6666666666666666
I3
tp88
sg61
(F1.0
F0.0
F1.6666666666666667
I3
tp89
sg40
(F0.0
F1.0
F0.0
I3
tp90
sg8
(F0.0
F0.6666666666666666
F0.0
I3
tp91
sg9
(I1
I0
I1
I2
tp92
sg10
(F1.0
F0.6666666666666666
F0.6666666666666666
I3
tp93
sg38
(F1.0
F0.3333333333333333
F0.6666666666666666
I3
tp94
sg11
(F0.0
F1.6666666666666667
F0.6666666666666666
I3
tp95
sg63
(F1.0
F0.0
F1.3333333333333333
I3
tp96
sg75
(F0.0
F0.0
F1.0
I3
tp97
sg12
(F0.6666666666666666
F0.0
F0.3333333333333333
I3
tp98
sg13
(F0.0
F1.0
F0.6666666666666666
I3
tp99
sg64
(F0.0
F1.3333333333333333
F0.3333333333333333
I3
tp100
sg14
(F2.0
F0.0
F0.3333333333333333
I3
tp101
sg48
(F0.0
F2.0
F0.0
I3
tp102
sg15
(F0.0
F2.0
F0.0
I2
tp103
sg42
(F0.0
F0.0
F1.3333333333333333
I3
tp104
sg66
(F1.0
F0.0
F0.6666666666666666
I3
tp105
sg17
(F1.6666666666666667
F0.0
F0.3333333333333333
I3
tp106
sg37
(F1.5
F0.0
F0.0
I2
tp107
sg65
(I0
I0
I0
I0
tp108
sg41
(F0.0
F1.5
F0.0
I2
tp109
sg43
(F0.0
F1.0
F2.0
I3
tp110
sg18
(F0.0
F0.0
F2.0
I3
tp111
sg44
(F0.0
F1.3333333333333333
F0.0
I3
tp112
s(I1
I3
I11
tp113
(F0.0
F0.0
F2.0
I2
tp114
sg67
(F0.0
F0.0
F2.6666666666666665
I3
tp115
sg45
(F0.0
F1.3333333333333333
F0.3333333333333333
I3
tp116
sg46
(F1.6666666666666667
F0.3333333333333333
F0.0
I3
tp117
sg19
(F2.0
F0.0
F0.6666666666666666
I3
tp118
s(I3
I3
I4
tp119
(F0.0
F1.5
F1.0
I2
tp120
sg16
(F0.0
F0.0
F0.0
I1
tp121
sg68
(F0.0
F0.0
F2.3333333333333335
I3
tp122
s(I3
I8
I4
tp123
(F3.0
F0.0
F0.0
I2
tp124
sg20
(F0.6666666666666666
F0.3333333333333333
F0.0
I3
tp125
sg69
(F0.0
F0.3333333333333333
F1.0
I3
tp126
sg21
(F0.0
F1.5
F1.0
I2
tp127
sg22
(F0.6666666666666666
F0.0
F1.6666666666666667
I3
tp128
sg47
(F0.0
F2.0
F0.0
I2
tp129
sg70
(F4.0
F0.0
F0.0
I1
tp130
sg71
(F0.0
F0.0
F2.0
I3
tp131
sg23
(F2.0
F0.0
F0.0
I3
tp132
sg24
(F0.3333333333333333
F0.0
F0.6666666666666666
I3
tp133
sg49
(F0.5
F1.5
F0.0
I2
tp134
sg25
(F2.0
F0.0
F1.3333333333333333
I3
tp135
sg50
(F0.0
F0.6666666666666666
F1.3333333333333333
I3
tp136
sg73
(F0.0
F1.0
F0.6666666666666666
I3
tp137
sg74
(F2.3333333333333335
F0.0
F0.0
I3
tp138
sg51
(F1.3333333333333333
F0.0
F0.0
I3
tp139
sg72
(F1.0
F0.0
F1.3333333333333333
I3
tp140
sg52
(F0.0
F2.6666666666666665
F0.0
I3
tp141
sg26
(F1.6666666666666667
F0.0
F0.3333333333333333
I3
tp142
sg53
(F0.6666666666666666
F1.0
F0.0
I3
tp143
sg27
(F0.0
F1.0
F0.0
I3
tp144
sg78
(F2.0
F0.0
F0.0
I3
tp145
s(I2
I5
I5
tp146
(F0.0
F0.0
F0.0
I2
tp147
s(I1
I4
I8
tp148
(F0.0
F3.0
F0.0
I2
tp149
sg29
(F1.0
F0.6666666666666666
F0.3333333333333333
I3
tp150
sg30
(F1.0
F0.0
F1.3333333333333333
I3
tp151
sg76
(F0.5
F0.0
F2.0
I2
tp152
sg28
(F2.0
F0.0
F0.0
I2
tp153
sg77
(F1.3333333333333333
F1.3333333333333333
F0.0
I3
tp154
sg31
(F0.6666666666666666
F0.0
F0.0
I3
tp155
sg55
(F0.0
F1.6666666666666667
F0.0
I3
tp156
sg56
(F0.0
F0.0
F0.0
I1
tp157
s(I0
I9
I8
tp158
(F0.0
F0.0
F2.5
I2
tp159
s(I5
I10
I7
tp160
(F2.5
F0.0
F0.0
I2
tp161
sg32
(F1.3333333333333333
F0.0
F0.6666666666666666
I3
tp162
s(I2
I6
I10
tp163
(F0.5
F0.0
F0.0
I2
tp164
s(I0
I6
I9
tp165
(F0.0
F4.0
F0.0
I2
tp166
sg39
(F0.6666666666666666
F0.3333333333333333
F0.6666666666666666
I3
tp167
sa.