(lp0
I3
ac__builtin__
set
p1
((lp2
(I8
I10
I11
tp3
a(I2
I5
I10
tp4
a(I0
I8
I3
tp5
a(I1
I8
I8
tp6
a(I3
I5
I11
tp7
a(I5
I7
I9
tp8
a(I3
I10
I7
tp9
a(I4
I8
I6
tp10
a(I0
I6
I10
tp11
a(I2
I11
I8
tp12
a(I4
I8
I10
tp13
a(I3
I11
I8
tp14
a(I4
I11
I8
tp15
a(I3
I11
I11
tp16
a(I1
I11
I8
tp17
a(I3
I3
I5
tp18
a(I2
I10
I7
tp19
a(I3
I10
I9
tp20
a(I3
I3
I9
tp21
a(I2
I10
I5
tp22
a(I5
I11
I11
tp23
a(I3
I8
I6
tp24
a(I3
I3
I11
tp25
a(I7
I11
I9
tp26
a(I5
I11
I8
tp27
a(I1
I8
I4
tp28
a(I3
I11
I4
tp29
a(I3
I5
I7
tp30
a(I7
I11
I11
tp31
a(I3
I5
I5
tp32
atp33
Rp34
ag1
((lp35
g3
ag4
a(I0
I6
I8
tp36
a(I3
I6
I10
tp37
ag28
ag8
ag9
a(I3
I5
I10
tp38
ag11
a(I5
I10
I9
tp39
a(I2
I9
I5
tp40
ag14
a(I0
I6
I5
tp41
a(I1
I4
I3
tp42
a(I0
I10
I9
tp43
a(I1
I6
I10
tp44
a(I5
I9
I8
tp45
a(I0
I7
I6
tp46
a(I3
I9
I8
tp47
ag20
a(I4
I9
I8
tp48
a(I2
I9
I10
tp49
a(I0
I4
I3
tp50
a(I2
I3
I8
tp51
a(I2
I9
I8
tp52
a(I3
I7
I9
tp53
a(I2
I3
I10
tp54
ag10
a(I2
I6
I11
tp55
a(I2
I8
I6
tp56
atp57
Rp58
ag1
((lp59
g3
ag4
a(I4
I10
I10
tp60
a(I3
I5
I11
tp61
ag8
ag9
ag11
a(I3
I5
I7
tp62
a(I3
I7
I4
tp63
a(I3
I5
I9
tp64
ag14
a(I1
I11
I9
tp65
ag42
a(I7
I7
I11
tp66
a(I3
I10
I11
tp67
ag46
ag19
a(I1
I5
I8
tp68
a(I1
I5
I11
tp69
a(I8
I8
I10
tp70
a(I5
I5
I8
tp71
a(I5
I5
I11
tp72
a(I1
I10
I11
tp73
a(I1
I10
I8
tp74
ag26
ag28
a(I4
I10
I9
tp75
a(I1
I7
I9
tp76
a(I8
I10
I9
tp77
a(I4
I10
I11
tp78
atp79
Rp80
a(dp81
g3
(F0.6666666666666666
F0.0
F1.6666666666666667
I3
tp82
sg4
(I1
I0
I1
I2
tp83
sg60
(F0.0
F0.0
F0.5
I2
tp84
sg36
(F0.0
F0.0
F2.0
I1
tp85
sg5
(I0
I0
I0
I0
tp86
sg6
(F0.0
F2.0
F1.5
I2
tp87
sg54
(F0.6666666666666666
F0.3333333333333333
F0.6666666666666666
I3
tp88
sg61
(F1.0
F0.0
F1.6666666666666667
I3
tp89
sg40
(F0.0
F0.0
F0.0
I1
tp90
sg8
(F0.0
F0.6666666666666666
F0.0
I3
tp91
sg9
(I1
I0
I1
I2
tp92
sg10
(F1.0
F0.6666666666666666
F0.6666666666666666
I3
tp93
sg38
(F1.0
F0.3333333333333333
F0.6666666666666666
I3
tp94
sg11
(F0.0
F1.6666666666666667
F0.6666666666666666
I3
tp95
sg63
(F3.0
F0.0
F0.0
I1
tp96
sg75
(F0.0
F0.0
F1.0
I3
tp97
sg12
(F1.0
F0.0
F0.0
I2
tp98
sg13
(F0.0
F3.0
F0.0
I1
tp99
sg64
(F0.0
F0.5
F0.5
I2
tp100
sg14
(F2.0
F0.0
F0.3333333333333333
I3
tp101
sg41
(F0.0
F1.5
F0.0
I2
tp102
sg15
(F0.0
F1.0
F0.0
I1
tp103
sg42
(F0.0
F0.0
F1.3333333333333333
I3
tp104
sg66
(F1.0
F0.0
F0.6666666666666666
I3
tp105
sg17
(F0.5
F0.0
F0.5
I2
tp106
sg37
g86
sg65
g86
sg43
g86
sg44
(F0.0
F0.0
F2.0
I1
tp107
sg18
g86
sg45
(F0.0
F1.3333333333333333
F0.0
I3
tp108
s(I1
I3
I11
tp109
(F0.0
F0.0
F2.0
I2
tp110
sg67
(F0.0
F0.0
F2.0
I1
tp111
sg46
(F0.0
F1.3333333333333333
F0.3333333333333333
I3
tp112
sg47
(F1.6666666666666667
F0.3333333333333333
F0.0
I3
tp113
sg19
(I2
I0
I1
I2
tp114
s(I3
I3
I4
tp115
(F0.0
F1.5
F1.0
I2
tp116
sg16
g86
sg68
(F0.0
F0.0
F2.3333333333333335
I3
tp117
s(I3
I8
I4
tp118
(F3.0
F0.0
F0.0
I2
tp119
sg20
(F1.0
F0.5
F0.0
I2
tp120
sg69
(F0.0
F0.0
F3.0
I1
tp121
sg21
(F0.0
F0.0
F2.0
I1
tp122
sg22
(F0.6666666666666666
F0.0
F1.6666666666666667
I3
tp123
sg48
g86
sg70
g86
sg71
(F0.0
F0.0
F1.5
I2
tp124
sg23
(F2.0
F0.0
F0.0
I3
tp125
sg24
(F1.0
F0.0
F0.0
I1
tp126
sg49
(F1.0
F0.0
F0.0
I1
tp127
sg25
(F2.0
F0.0
F1.3333333333333333
I3
tp128
sg50
(F0.0
F1.0
F0.5
I2
tp129
sg73
(F0.0
F1.0
F0.6666666666666666
I3
tp130
sg74
(F1.0
F0.0
F0.0
I1
tp131
sg51
(F2.0
F0.0
F0.0
I2
tp132
sg72
(F1.0
F0.0
F1.3333333333333333
I3
tp133
sg52
(F0.0
F2.5
F0.0
I2
tp134
sg26
(F1.6666666666666667
F0.0
F0.3333333333333333
I3
tp135
sg53
(F1.0
F1.5
F0.0
I2
tp136
sg27
(F0.0
F3.0
F0.0
I1
tp137
sg78
(F0.0
F0.0
F0.0
I1
tp138
s(I2
I5
I5
tp139
(F0.0
F0.0
F0.0
I2
tp140
s(I1
I4
I8
tp141
(F0.0
F3.0
F0.0
I2
tp142
sg29
(F1.0
F0.6666666666666666
F0.3333333333333333
I3
tp143
sg30
(F1.0
F0.0
F1.3333333333333333
I3
tp144
sg76
(F1.0
F0.0
F0.0
I1
tp145
sg28
(F2.0
F0.0
F0.0
I2
tp146
sg77
(F0.0
F2.0
F0.0
I1
tp147
sg31
g86
sg55
(F0.0
F1.6666666666666667
F0.0
I3
tp148
sg56
g86
s(I0
I9
I8
tp149
(F0.0
F0.0
F2.5
I2
tp150
s(I5
I10
I7
tp151
(F2.5
F0.0
F0.0
I2
tp152
sg32
(F1.3333333333333333
F0.0
F0.6666666666666666
I3
tp153
s(I2
I6
I10
tp154
(F0.5
F0.0
F0.0
I2
tp155
s(I0
I6
I9
tp156
(F0.0
F4.0
F0.0
I2
tp157
sg39
(F0.6666666666666666
F0.3333333333333333
F0.6666666666666666
I3
tp158
sa.