(lp0
I5
ac__builtin__
set
p1
((lp2
(I8
I10
I11
tp3
a(I3
I5
I4
tp4
a(I0
I8
I3
tp5
a(I3
I5
I11
tp6
a(I3
I10
I7
tp7
a(I1
I11
I11
tp8
a(I3
I11
I4
tp9
a(I3
I10
I4
tp10
a(I3
I11
I8
tp11
a(I4
I11
I8
tp12
a(I3
I11
I11
tp13
a(I1
I11
I8
tp14
a(I2
I11
I11
tp15
a(I2
I10
I7
tp16
a(I5
I10
I7
tp17
a(I3
I8
I4
tp18
a(I0
I11
I8
tp19
a(I1
I8
I3
tp20
a(I3
I3
I8
tp21
a(I5
I11
I11
tp22
a(I3
I8
I6
tp23
a(I3
I3
I11
tp24
a(I2
I5
I7
tp25
a(I1
I8
I7
tp26
a(I7
I11
I9
tp27
a(I2
I8
I4
tp28
a(I1
I8
I4
tp29
a(I4
I8
I6
tp30
a(I3
I5
I7
tp31
a(I0
I5
I11
tp32
a(I3
I5
I5
tp33
atp34
Rp35
ag1
((lp36
(I2
I9
I6
tp37
a(I0
I6
I8
tp38
a(I0
I9
I10
tp39
a(I5
I7
I9
tp40
a(I0
I6
I10
tp41
a(I2
I9
I5
tp42
a(I0
I6
I5
tp43
a(I0
I10
I9
tp44
a(I1
I6
I8
tp45
a(I0
I10
I8
tp46
a(I1
I6
I10
tp47
a(I0
I6
I6
tp48
a(I2
I6
I5
tp49
a(I5
I9
I8
tp50
a(I0
I7
I6
tp51
a(I0
I1
I8
tp52
a(I5
I9
I10
tp53
a(I1
I3
I9
tp54
a(I1
I6
I6
tp55
a(I2
I7
I9
tp56
a(I4
I9
I8
tp57
a(I0
I7
I5
tp58
a(I2
I9
I10
tp59
a(I0
I7
I10
tp60
a(I4
I9
I10
tp61
a(I0
I2
I9
tp62
a(I2
I9
I8
tp63
a(I3
I7
I9
tp64
a(I2
I6
I11
tp65
a(I0
I9
I8
tp66
a(I0
I6
I9
tp67
atp68
Rp69
ag1
((lp70
g3
a(I3
I8
I10
tp71
a(I2
I5
I10
tp72
a(I0
I6
I8
tp73
a(I2
I5
I11
tp74
a(I3
I5
I11
tp75
ag7
a(I3
I5
I10
tp76
a(I3
I10
I4
tp77
a(I4
I10
I9
tp78
a(I3
I7
I4
tp79
a(I1
I11
I9
tp80
a(I1
I4
I3
tp81
a(I2
I9
I3
tp82
a(I3
I10
I11
tp83
a(I1
I8
I2
tp84
a(I1
I5
I8
tp85
a(I1
I5
I11
tp86
a(I8
I8
I10
tp87
a(I5
I5
I8
tp88
a(I4
I5
I5
tp89
a(I5
I5
I11
tp90
a(I1
I5
I5
tp91
a(I2
I5
I7
tp92
a(I1
I7
I11
tp93
a(I2
I5
I4
tp94
a(I1
I4
I11
tp95
a(I2
I5
I5
tp96
a(I3
I5
I7
tp97
a(I1
I7
I9
tp98
atp99
Rp100
a(dp101
g71
(I0
I0
I0
I0
tp102
sg74
g102
sg75
(F1.0
F0.0
F1.6666666666666667
I3
tp103
s(I4
I7
I6
tp104
(F0.6666666666666666
F0.0
F0.3333333333333333
I3
tp105
s(I4
I10
I10
tp106
(F1.0
F0.0
F0.3333333333333333
I3
tp107
s(I3
I5
I9
tp108
(F0.0
F1.3333333333333333
F0.3333333333333333
I3
tp109
sg79
(F1.0
F0.0
F1.3333333333333333
I3
tp110
s(I0
I7
I10
tp111
(F1.0
F0.0
F1.0
I3
tp112
sg46
g102
sg14
(F1.6666666666666667
F0.0
F0.3333333333333333
I3
tp113
sg49
(F0.6666666666666666
F1.0
F0.0
I3
tp114
sg83
(F0.0
F0.0
F2.6666666666666665
I3
tp115
sg51
(F0.0
F1.3333333333333333
F0.3333333333333333
I3
tp116
sg52
g102
s(I3
I8
I4
tp117
(F2.0
F0.0
F1.0
I3
tp118
s(I3
I10
I9
tp119
(F0.6666666666666666
F0.3333333333333333
F0.0
I3
tp120
sg86
(F0.0
F0.3333333333333333
F1.0
I3
tp121
sg57
(F0.0
F2.3333333333333335
F0.0
I3
tp122
s(I1
I10
I11
tp123
(F0.0
F1.0
F0.6666666666666666
I3
tp124
sg22
(F2.0
F0.0
F0.0
I3
tp125
s(I3
I8
I6
tp126
(F0.3333333333333333
F0.0
F0.6666666666666666
I3
tp127
sg90
(F1.0
F0.0
F1.3333333333333333
I3
tp128
sg91
g102
sg61
g102
sg25
(F1.0
F0.0
F0.3333333333333333
I3
tp129
s(I2
I3
I8
tp130
(F1.3333333333333333
F0.0
F0.0
I3
tp131
sg27
(F1.6666666666666667
F0.0
F0.3333333333333333
I3
tp132
s(I2
I5
I5
tp133
(F0.0
F0.0
F1.0
I3
tp134
s(I2
I3
I10
tp135
(F0.6666666666666666
F0.3333333333333333
F0.6666666666666666
I3
tp136
s(I7
I11
I11
tp137
(F0.6666666666666666
F0.0
F0.0
I3
tp138
sg65
(F0.0
F1.6666666666666667
F0.0
I3
tp139
s(I0
I6
I9
tp140
(F0.0
F4.0
F0.0
I2
tp141
s(I0
I8
I4
tp142
(F0.0
F0.6666666666666666
F0.6666666666666666
I3
tp143
sg37
(F0.0
F0.0
F0.0
I1
tp144
s(I1
I8
I8
tp145
(F0.0
F1.3333333333333333
F2.3333333333333335
I3
tp146
sg29
(F2.3333333333333335
F0.0
F0.0
I3
tp147
sg40
(F0.0
F0.6666666666666666
F0.0
I3
tp148
sg7
(F1.6666666666666667
F0.0
F0.6666666666666666
I3
tp149
sg11
(F2.0
F0.0
F0.3333333333333333
I3
tp150
sg43
(F0.0
F2.0
F0.0
I3
tp151
s(I3
I10
I5
tp152
(F0.6666666666666666
F1.0
F0.0
I3
tp153
sg45
(F0.0
F1.3333333333333333
F0.6666666666666666
I3
tp154
s(I7
I7
I11
tp155
(F1.0
F0.0
F0.6666666666666666
I3
tp156
sg15
(F1.3333333333333333
F0.0
F1.6666666666666667
I3
tp157
sg47
(F0.0
F1.0
F2.0
I3
tp158
s(I3
I3
I5
tp159
(F0.0
F0.0
F2.0
I3
tp160
sg19
g102
sg50
(F0.0
F1.3333333333333333
F0.0
I3
tp161
s(I1
I3
I11
tp162
(F0.0
F0.0
F2.0
I3
tp163
sg53
g102
sg54
g102
sg55
(F0.0
F0.6666666666666666
F0.6666666666666666
I3
tp164
sg56
g102
s(I3
I3
I9
tp165
(F0.0
F1.6666666666666667
F0.6666666666666666
I3
tp166
s(I2
I10
I4
tp167
(F0.0
F0.6666666666666666
F1.3333333333333333
I3
tp168
sg59
(F0.3333333333333333
F2.3333333333333335
F0.0
I3
tp169
sg24
(F2.0
F0.0
F1.3333333333333333
I3
tp170
sg93
(F0.0
F0.0
F1.6666666666666667
I3
tp171
sg63
(F0.0
F2.6666666666666665
F0.0
I3
tp172
sg95
g102
sg9
(F1.0
F0.6666666666666666
F0.3333333333333333
I3
tp173
sg98
(F1.0
F0.0
F1.3333333333333333
I3
tp174
sg72
(F0.6666666666666666
F0.0
F1.3333333333333333
I3
tp175
s(I3
I5
I4
tp176
(F0.6666666666666666
F0.3333333333333333
F0.0
I3
tp177
s(I3
I6
I10
tp178
(F1.0
F0.0
F0.6666666666666666
I3
tp179
sg8
g102
s(I3
I5
I10
tp180
(F1.0
F0.3333333333333333
F0.6666666666666666
I3
tp181
s(I5
I10
I9
tp182
(F0.6666666666666666
F0.3333333333333333
F0.6666666666666666
I3
tp183
sg44
(F0.0
F1.6666666666666667
F0.0
I3
tp184
sg80
(F1.0
F0.0
F1.6666666666666667
I3
tp185
sg81
(F0.0
F0.0
F1.3333333333333333
I3
tp186
s(I1
I10
I8
tp187
(F2.3333333333333335
F0.0
F0.0
I3
tp188
s(I5
I10
I7
tp189
(F2.5
F0.0
F0.0
I2
tp190
sg85
(F0.0
F0.0
F2.3333333333333335
I3
tp191
sg20
(F1.6666666666666667
F0.3333333333333333
F0.0
I3
tp192
sg58
(F0.6666666666666666
F1.0
F0.0
I3
tp193
sg88
(F0.0
F0.0
F2.0
I3
tp194
s(I0
I4
I3
tp195
(F0.0
F0.6666666666666666
F1.3333333333333333
I3
tp196
sg94
(F0.6666666666666666
F0.0
F1.6666666666666667
I3
tp197
s(I1
I8
I7
tp198
(F0.3333333333333333
F0.0
F1.3333333333333333
I3
tp199
sg64
(F0.6666666666666666
F1.0
F0.0
I3
tp200
s(I5
I11
I8
tp201
(F0.0
F1.0
F0.0
I3
tp202
s(I8
I10
I9
tp203
(F1.3333333333333333
F1.3333333333333333
F0.0
I3
tp204
s(I3
I7
I11
tp205
(F0.6666666666666666
F1.0
F0.6666666666666666
I3
tp206
s(I0
I9
I8
tp207
(F0.0
F0.6666666666666666
F1.6666666666666667
I3
tp208
s(I2
I6
I10
tp209
(F0.5
F0.0
F0.0
I2
tp210
sg3
(F0.6666666666666666
F0.0
F1.6666666666666667
I3
tp211
sg38
(F0.0
F2.0
F0.6666666666666666
I3
tp212
sg5
(F2.0
F0.0
F0.6666666666666666
I3
tp213
sg39
(F0.0
F3.3333333333333335
F0.0
I3
tp214
sg87
(F2.3333333333333335
F0.0
F1.0
I3
tp215
sg41
(F0.0
F1.6666666666666667
F0.6666666666666666
I3
tp216
sg10
g102
sg78
(F0.0
F0.0
F1.0
I3
tp217
s(I2
I11
I8
tp218
(F0.6666666666666666
F0.0
F0.3333333333333333
I3
tp219
sg42
(F0.0
F1.0
F0.0
I3
tp220
s(I4
I8
I10
tp221
(F0.0
F1.0
F0.6666666666666666
I3
tp222
s(I4
I11
I8
tp223
(F0.0
F1.3333333333333333
F1.0
I3
tp224
sg13
(F1.0
F0.0
F0.0
I3
tp225
sg82
(F2.0
F0.0
F0.0
I1
tp226
sg48
(F0.0
F2.3333333333333335
F0.0
I3
tp227
s(I3
I3
I4
tp228
(F0.0
F1.5
F1.0
I2
tp229
s(I3
I9
I8
tp230
(F1.6666666666666667
F0.3333333333333333
F0.0
I3
tp231
s(I4
I10
I11
tp232
(F2.0
F0.0
F0.0
I3
tp233
sg16
(F2.0
F0.0
F0.6666666666666666
I3
tp234
s(I2
I10
I5
tp235
(F0.6666666666666666
F0.0
F1.6666666666666667
I3
tp236
sg21
g102
sg84
g102
sg89
g102
sg62
g102
sg28
g102
s(I1
I4
I8
tp237
(F0.0
F3.0
F0.0
I2
tp238
sg30
(F1.0
F0.6666666666666666
F0.6666666666666666
I3
tp239
sg31
(F1.0
F0.0
F1.3333333333333333
I3
tp240
sg32
g102
s(I2
I8
I6
tp241
(F0.6666666666666666
F0.0
F0.6666666666666666
I3
tp242
sg33
(F1.3333333333333333
F0.0
F0.6666666666666666
I3
tp243
sa.