(lp0
I4
ac__builtin__
set
p1
((lp2
(I8
I10
I11
tp3
a(I2
I5
I10
tp4
a(I0
I8
I3
tp5
a(I3
I5
I11
tp6
a(I3
I10
I7
tp7
a(I4
I8
I6
tp8
a(I2
I11
I8
tp9
a(I3
I11
I8
tp10
a(I3
I10
I5
tp11
a(I3
I11
I11
tp12
a(I1
I11
I8
tp13
a(I2
I11
I11
tp14
a(I1
I3
I11
tp15
a(I2
I10
I7
tp16
a(I3
I8
I4
tp17
a(I3
I10
I9
tp18
a(I1
I8
I3
tp19
a(I2
I10
I5
tp20
a(I5
I11
I11
tp21
a(I2
I10
I4
tp22
a(I3
I3
I11
tp23
a(I2
I5
I7
tp24
a(I1
I8
I7
tp25
a(I7
I11
I9
tp26
a(I5
I11
I8
tp27
a(I1
I8
I4
tp28
a(I3
I11
I4
tp29
a(I3
I5
I7
tp30
a(I3
I5
I5
tp31
a(I0
I8
I4
tp32
atp33
Rp34
ag1
((lp35
(I0
I6
I8
tp36
a(I0
I9
I10
tp37
a(I5
I7
I9
tp38
a(I4
I7
I6
tp39
a(I3
I5
I10
tp40
a(I0
I6
I10
tp41
a(I5
I10
I9
tp42
a(I2
I9
I5
tp43
a(I0
I6
I5
tp44
a(I0
I10
I9
tp45
a(I1
I6
I8
tp46
a(I1
I6
I10
tp47
a(I0
I6
I6
tp48
a(I2
I6
I5
tp49
a(I5
I9
I8
tp50
a(I0
I7
I6
tp51
a(I3
I9
I8
tp52
ag18
a(I1
I6
I6
tp53
a(I4
I9
I8
tp54
a(I0
I7
I5
tp55
a(I2
I9
I10
tp56
a(I0
I4
I3
tp57
a(I2
I9
I8
tp58
a(I3
I7
I9
tp59
ag8
a(I4
I10
I9
tp60
a(I0
I7
I10
tp61
a(I2
I6
I11
tp62
a(I0
I9
I8
tp63
atp64
Rp65
ag1
((lp66
g3
ag4
a(I3
I5
I4
tp67
a(I0
I6
I8
tp68
a(I3
I5
I11
tp69
ag7
ag41
a(I3
I5
I7
tp70
a(I3
I5
I9
tp71
a(I3
I7
I4
tp72
a(I1
I11
I9
tp73
a(I1
I4
I3
tp74
a(I7
I7
I11
tp75
a(I3
I10
I11
tp76
a(I1
I10
I8
tp77
ag16
a(I1
I5
I8
tp78
a(I1
I5
I11
tp79
a(I8
I8
I10
tp80
a(I5
I5
I8
tp81
a(I5
I5
I11
tp82
a(I1
I10
I11
tp83
a(I1
I7
I11
tp84
a(I2
I5
I4
tp85
a(I2
I5
I5
tp86
a(I4
I10
I9
tp87
a(I1
I7
I9
tp88
a(I8
I10
I9
tp89
a(I3
I7
I11
tp90
a(I4
I10
I11
tp91
atp92
Rp93
a(dp94
g69
(F1.0
F0.0
F1.6666666666666667
I3
tp95
sg39
(F0.0
F0.0
F0.5
I2
tp96
sg67
(F0.0
F1.0
F0.0
I1
tp97
s(I3
I5
I9
tp98
(F0.0
F1.3333333333333333
F0.3333333333333333
I3
tp99
sg72
(F1.0
F0.0
F1.3333333333333333
I3
tp100
sg61
(F3.0
F0.0
F0.0
I1
tp101
sg13
(F1.6666666666666667
F0.0
F0.3333333333333333
I3
tp102
sg49
(F2.0
F0.0
F0.0
I1
tp103
sg76
(F0.0
F0.0
F2.6666666666666665
I3
tp104
sg51
(F0.0
F1.3333333333333333
F0.3333333333333333
I3
tp105
s(I3
I8
I4
tp106
(F2.0
F0.0
F1.0
I3
tp107
sg18
(F0.6666666666666666
F0.3333333333333333
F0.0
I3
tp108
sg79
(F0.0
F0.3333333333333333
F1.0
I3
tp109
sg54
(F0.0
F2.3333333333333335
F0.0
I3
tp110
sg83
(F0.0
F1.0
F0.6666666666666666
I3
tp111
sg21
(F2.0
F0.0
F0.0
I3
tp112
s(I3
I8
I6
tp113
(F0.3333333333333333
F0.0
F0.6666666666666666
I3
tp114
sg82
(F1.0
F0.0
F1.3333333333333333
I3
tp115
sg24
(F1.5
F0.0
F0.0
I2
tp116
s(I2
I3
I8
tp117
(F1.3333333333333333
F0.0
F0.0
I3
tp118
sg26
(F1.6666666666666667
F0.0
F0.3333333333333333
I3
tp119
s(I2
I5
I5
tp120
(F0.0
F0.0
F1.0
I3
tp121
s(I2
I3
I10
tp122
(F0.6666666666666666
F0.3333333333333333
F0.6666666666666666
I3
tp123
s(I7
I11
I11
tp124
(F0.6666666666666666
F0.0
F0.0
I3
tp125
sg62
(F0.0
F1.6666666666666667
F0.0
I3
tp126
s(I0
I6
I9
tp127
(F0.0
F4.0
F0.0
I2
tp128
sg32
(F0.0
F0.5
F1.0
I2
tp129
s(I1
I8
I8
tp130
(F0.0
F1.3333333333333333
F2.3333333333333335
I3
tp131
sg28
(F2.3333333333333335
F0.0
F0.0
I3
tp132
sg38
(F0.0
F0.6666666666666666
F0.0
I3
tp133
sg7
(F1.6666666666666667
F0.0
F0.6666666666666666
I3
tp134
sg10
(F2.0
F0.0
F0.3333333333333333
I3
tp135
sg44
(F0.0
F2.0
F0.0
I3
tp136
sg11
(F0.6666666666666666
F1.0
F0.0
I3
tp137
sg46
(F0.0
F0.0
F2.0
I1
tp138
sg75
(F1.0
F0.0
F0.6666666666666666
I3
tp139
sg14
(F0.0
F0.0
F2.0
I1
tp140
sg47
(F0.0
F1.0
F2.0
I3
tp141
s(I3
I3
I5
tp142
(F0.0
F0.0
F2.0
I3
tp143
sg50
(F0.0
F1.3333333333333333
F0.0
I3
tp144
s(I1
I3
I11
tp145
(F0.0
F0.0
F2.0
I3
tp146
sg53
(I0
I0
I0
I0
tp147
s(I3
I3
I9
tp148
(F0.0
F1.6666666666666667
F0.6666666666666666
I3
tp149
sg22
(F0.0
F0.6666666666666666
F1.3333333333333333
I3
tp150
sg56
(F0.3333333333333333
F2.3333333333333335
F0.0
I3
tp151
sg23
(F2.0
F0.0
F1.3333333333333333
I3
tp152
sg84
(F0.0
F0.0
F0.0
I1
tp153
sg58
(F0.0
F2.6666666666666665
F0.0
I3
tp154
sg29
(F1.0
F0.6666666666666666
F0.3333333333333333
I3
tp155
sg88
(F1.0
F0.0
F1.3333333333333333
I3
tp156
sg4
(F0.6666666666666666
F0.0
F1.3333333333333333
I3
tp157
s(I4
I10
I10
tp158
(F1.0
F0.0
F0.3333333333333333
I3
tp159
s(I3
I6
I10
tp160
(F1.0
F0.0
F0.6666666666666666
I3
tp161
sg40
(F1.0
F0.3333333333333333
F0.6666666666666666
I3
tp162
sg42
(F0.6666666666666666
F0.3333333333333333
F0.6666666666666666
I3
tp163
sg45
(F0.0
F1.6666666666666667
F0.0
I3
tp164
sg73
(F1.0
F0.0
F1.6666666666666667
I3
tp165
sg74
(F0.0
F0.0
F1.3333333333333333
I3
tp166
s(I1
I10
I8
tp167
(F2.3333333333333335
F0.0
F0.0
I3
tp168
s(I5
I10
I7
tp169
(F2.5
F0.0
F0.0
I2
tp170
sg78
(F0.0
F0.0
F2.3333333333333335
I3
tp171
sg19
(F2.0
F0.0
F0.0
I1
tp172
sg55
(F1.0
F0.5
F0.0
I2
tp173
sg81
(F0.0
F0.0
F2.0
I3
tp174
sg57
(F0.0
F0.6666666666666666
F1.3333333333333333
I3
tp175
sg85
(F1.0
F0.0
F2.0
I2
tp176
sg25
(F0.3333333333333333
F0.0
F1.3333333333333333
I3
tp177
sg59
(F0.6666666666666666
F1.0
F0.0
I3
tp178
s(I5
I11
I8
tp179
(F0.0
F1.0
F0.0
I3
tp180
s(I8
I10
I9
tp181
(F1.3333333333333333
F1.3333333333333333
F0.0
I3
tp182
sg90
(F0.6666666666666666
F1.0
F0.6666666666666666
I3
tp183
s(I0
I9
I8
tp184
(F0.0
F0.6666666666666666
F1.6666666666666667
I3
tp185
s(I2
I6
I10
tp186
(F0.5
F0.0
F0.0
I2
tp187
sg3
(F0.6666666666666666
F0.0
F1.6666666666666667
I3
tp188
sg36
(F0.0
F2.0
F0.6666666666666666
I3
tp189
sg5
(F2.0
F0.0
F0.6666666666666666
I3
tp190
sg37
(F0.0
F3.3333333333333335
F0.0
I3
tp191
sg80
(F2.3333333333333335
F0.0
F1.0
I3
tp192
sg41
(F0.0
F1.6666666666666667
F0.6666666666666666
I3
tp193
sg30
(F1.0
F0.0
F1.3333333333333333
I3
tp194
sg9
(F0.6666666666666666
F0.0
F0.3333333333333333
I3
tp195
sg43
(F0.0
F1.0
F0.0
I3
tp196
s(I4
I8
I10
tp197
(F0.0
F1.0
F0.6666666666666666
I3
tp198
s(I4
I11
I8
tp199
(F0.0
F1.3333333333333333
F1.0
I3
tp200
sg12
(F1.0
F0.0
F0.0
I3
tp201
sg48
(F0.0
F2.3333333333333335
F0.0
I3
tp202
s(I3
I3
I4
tp203
(F0.0
F1.5
F1.0
I2
tp204
sg52
(F1.6666666666666667
F0.3333333333333333
F0.0
I3
tp205
sg16
(F2.0
F0.0
F0.6666666666666666
I3
tp206
sg20
(F0.6666666666666666
F0.0
F1.6666666666666667
I3
tp207
sg31
(F1.3333333333333333
F0.0
F0.6666666666666666
I3
tp208
s(I1
I4
I8
tp209
(F0.0
F3.0
F0.0
I2
tp210
sg8
(F1.0
F0.6666666666666666
F0.6666666666666666
I3
tp211
sg87
(F0.0
F0.0
F1.0
I3
tp212
s(I2
I8
I6
tp213
(F0.6666666666666666
F0.0
F0.6666666666666666
I3
tp214
s(I4
I10
I11
tp215
(F2.0
F0.0
F0.0
I3
tp216
sa.