(lp0
I3
ac__builtin__
set
p1
((lp2
(I0
I9
I9
tp3
a(I0
I11
I2
tp4
a(I0
I6
I8
tp5
a(I7
I10
I10
tp6
a(I0
I0
I8
tp7
a(I0
I3
I8
tp8
a(I0
I3
I9
tp9
a(I4
I11
I8
tp10
a(I0
I11
I6
tp11
a(I1
I11
I8
tp12
a(I8
I11
I9
tp13
a(I0
I7
I8
tp14
a(I0
I6
I6
tp15
a(I4
I11
I7
tp16
a(I0
I7
I9
tp17
a(I0
I3
I2
tp18
a(I4
I4
I11
tp19
a(I4
I7
I9
tp20
a(I7
I8
I8
tp21
a(I0
I11
I8
tp22
a(I6
I7
I8
tp23
a(I0
I8
I8
tp24
a(I0
I3
I6
tp25
a(I0
I8
I9
tp26
a(I0
I7
I6
tp27
a(I6
I7
I11
tp28
a(I0
I8
I6
tp29
a(I3
I4
I4
tp30
a(I0
I0
I11
tp31
a(I0
I9
I8
tp32
atp33
Rp34
ag1
((lp35
g4
ag5
ag6
a(I1
I8
I8
tp36
a(I7
I9
I11
tp37
ag7
a(I1
I8
I9
tp38
a(I7
I7
I9
tp39
a(I7
I10
I8
tp40
a(I1
I2
I11
tp41
a(I7
I10
I9
tp42
a(I4
I11
I8
tp43
a(I7
I9
I8
tp44
a(I4
I11
I9
tp45
a(I4
I7
I10
tp46
a(I4
I7
I8
tp47
ag19
ag20
a(I4
I4
I10
tp48
ag21
a(I1
I10
I10
tp49
a(I1
I9
I7
tp50
a(I1
I2
I3
tp51
a(I4
I4
I8
tp52
a(I1
I9
I9
tp53
a(I1
I10
I11
tp54
a(I1
I9
I8
tp55
a(I1
I9
I11
tp56
a(I1
I7
I10
tp57
a(I1
I3
I4
tp58
atp59
Rp60
ag1
((lp61
(I0
I9
I9
tp62
ag4
ag5
ag6
a(I3
I5
I11
tp63
ag7
a(I0
I1
I3
tp64
a(I0
I3
I8
tp65
a(I4
I8
I11
tp66
a(I8
I11
I11
tp67
ag13
ag15
a(I1
I4
I10
tp68
ag19
ag20
a(I1
I3
I9
tp69
a(I4
I4
I10
tp70
ag21
ag22
a(I2
I8
I10
tp71
a(I5
I8
I10
tp72
a(I5
I8
I11
tp73
a(I7
I8
I11
tp74
a(I5
I8
I8
tp75
a(I2
I3
I8
tp76
a(I5
I8
I9
tp77
a(I3
I9
I4
tp78
a(I2
I9
I9
tp79
a(I2
I11
I3
tp80
a(I2
I4
I10
tp81
atp82
Rp83
a(dp84
g81
(I0
I0
I16
I3
tp85
sg3
(I18
I0
I0
I2
tp86
sg4
(I13
I0
I0
I2
tp87
sg5
(I14
I0
I0
I3
tp88
sg6
(I0
I27
I0
I2
tp89
sg36
(I0
I17
I0
I2
tp90
sg37
(I0
I0
I0
I0
tp91
sg7
(I8
I0
I0
I2
tp92
sg64
(I4
I0
I0
I3
tp93
sg65
(I11
I0
I0
I2
tp94
sg39
(I0
I23
I0
I2
tp95
sg40
g91
sg74
(I0
I26
I0
I2
tp96
sg41
(I0
I14
I0
I3
tp97
sg67
g91
sg42
(I0
I26
I0
I1
tp98
sg10
(I0
I23
I0
I3
tp99
sg11
(I17
I0
I0
I2
tp100
sg44
(I0
I24
I0
I2
tp101
sg45
(I0
I24
I0
I1
tp102
sg13
(I0
I0
I28
I3
tp103
sg26
g91
sg46
g91
sg14
(I15
I0
I0
I1
tp104
sg15
(I12
I0
I0
I3
tp105
sg16
(I0
I22
I0
I3
tp106
sg17
(I16
I0
I0
I3
tp107
sg68
g91
sg47
(I0
I19
I0
I2
tp108
sg18
(I5
I0
I0
I2
tp109
sg63
g91
sg19
(I0
I19
I0
I3
tp110
sg20
(I0
I20
I0
I2
tp111
sg80
(I0
I0
I16
I3
tp112
sg69
(I0
I13
I0
I2
tp113
sg70
(I0
I18
I0
I2
tp114
sg21
(I0
I23
I0
I2
tp115
sg22
(I19
I0
I0
I2
tp116
sg71
g91
sg50
(I0
I17
I0
I2
tp117
s(I6
I7
I8
tp118
(I21
I0
I0
I2
tp119
s(I0
I3
I1
tp120
(I4
I0
I0
I2
tp121
sg12
(I0
I20
I0
I2
tp122
sg72
(I0
I0
I23
I2
tp123
sg25
(I9
I0
I0
I2
tp124
sg9
(I12
I0
I0
I1
tp125
sg53
(I0
I19
I0
I2
tp126
sg54
g91
sg75
(I0
I0
I21
I1
tp127
sg27
(I13
I0
I0
I1
tp128
sg76
g91
sg49
(I0
I21
I0
I2
tp129
sg55
(I0
I18
I0
I3
tp130
sg51
(I0
I6
I0
I2
tp131
sg77
g91
s(I1
I4
I11
tp132
(I0
I16
I0
I2
tp133
sg78
g91
sg56
(I0
I21
I0
I2
tp134
sg57
g91
sg79
(I0
I0
I20
I3
tp135
sg28
g91
sg66
(I0
I23
I0
I2
tp136
s(I2
I4
I11
tp137
(I0
I0
I17
I2
tp138
sg29
(I14
I0
I0
I1
tp139
sg30
(I11
I0
I0
I3
tp140
sg52
(I0
I16
I0
I2
tp141
sg38
g91
s(I4
I8
I8
tp142
(I0
I20
I0
I2
tp143
sg31
(I11
I0
I0
I1
tp144
sg58
(I0
I8
I0
I2
tp145
sg24
(I16
I0
I0
I2
tp146
sg32
g91
s(I1
I3
I6
tp147
(I0
I10
I0
I2
tp148
sg73
(I0
I0
I24
I2
tp149
sa.